; Function Attrs: mustprogress uwtable
define dso_local void @_ZN20Sample_TempObstacles23renderCachedTileOverlayEiiPdS0_Pi(ptr nocapture noundef nonnull readonly align 8 dereferenceable(276) %0, i32 noundef %1, i32 noundef %2, ptr noundef %3, ptr noundef %4, ptr noundef %5) local_unnamed_addr #5 align 2 {
  %7 = getelementptr inbounds i8, ptr %0, i64 232
  %8 = load ptr, ptr %7, align 8
  %.not = icmp eq ptr %8, null
  br i1 %.not, label %10, label %9

9:                                                ; preds = %6
  tail call void @_Z17drawDetailOverlayPK11dtTileCacheiiPdS2_Pi(ptr noundef nonnull %8, i32 noundef %1, i32 noundef %2, ptr noundef %3, ptr noundef %4, ptr noundef %5)
  br label %10

10:                                               ; preds = %9, %6
  ret void
}